; ModuleID = '50/2643.c'
source_filename = "50/2643.c"
target datalayout = "e-m:e-p270:32:32-p271:32:32-p272:64:64-i64:64-f80:128-n8:16:32:64-S128"
target triple = "x86_64-pc-linux-gnu"

@.str = private unnamed_addr constant [3 x i8] c"%d\00", align 1
@.str.1 = private unnamed_addr constant [4 x i8] c"%d\0A\00", align 1

; Function Attrs: noinline nounwind uwtable
define dso_local i32 @main() #0 {
  %1 = alloca i32, align 4
  %2 = alloca [13 x i32], align 16
  %3 = alloca i32, align 4
  %4 = alloca i32, align 4
  %5 = alloca i32, align 4
  store i32 0, i32* %1, align 4
  %6 = getelementptr inbounds [13 x i32], [13 x i32]* %2, i64 0, i64 0
  store i32 0, i32* %6, align 16
  %7 = getelementptr inbounds [13 x i32], [13 x i32]* %2, i64 0, i64 1
  store i32 31, i32* %7, align 4
  %8 = getelementptr inbounds [13 x i32], [13 x i32]* %2, i64 0, i64 2
  store i32 28, i32* %8, align 8
  %9 = getelementptr inbounds [13 x i32], [13 x i32]* %2, i64 0, i64 3
  store i32 31, i32* %9, align 4
  %10 = getelementptr inbounds [13 x i32], [13 x i32]* %2, i64 0, i64 4
  store i32 30, i32* %10, align 16
  %11 = getelementptr inbounds [13 x i32], [13 x i32]* %2, i64 0, i64 5
  store i32 31, i32* %11, align 4
  %12 = getelementptr inbounds [13 x i32], [13 x i32]* %2, i64 0, i64 6
  store i32 30, i32* %12, align 8
  %13 = getelementptr inbounds [13 x i32], [13 x i32]* %2, i64 0, i64 7
  store i32 31, i32* %13, align 4
  %14 = getelementptr inbounds [13 x i32], [13 x i32]* %2, i64 0, i64 8
  store i32 31, i32* %14, align 16
  %15 = getelementptr inbounds [13 x i32], [13 x i32]* %2, i64 0, i64 9
  store i32 30, i32* %15, align 4
  %16 = getelementptr inbounds [13 x i32], [13 x i32]* %2, i64 0, i64 10
  store i32 31, i32* %16, align 8
  %17 = getelementptr inbounds [13 x i32], [13 x i32]* %2, i64 0, i64 11
  store i32 30, i32* %17, align 4
  %18 = getelementptr inbounds [13 x i32], [13 x i32]* %2, i64 0, i64 12
  store i32 31, i32* %18, align 16
  %19 = call i32 (i8*, ...) @__isoc99_scanf(i8* getelementptr inbounds ([3 x i8], [3 x i8]* @.str, i64 0, i64 0), i32* %3)
  store i32 13, i32* %5, align 4
  store i32 0, i32* %4, align 4
  br label %20

20:                                               ; preds = %62, %0
  %21 = load i32, i32* %4, align 4
  %22 = icmp slt i32 %21, 12
  br i1 %22, label %23, label %65

23:                                               ; preds = %20
  %24 = load i32, i32* %5, align 4
  %25 = load i32, i32* %4, align 4
  %26 = sext i32 %25 to i64
  %27 = getelementptr inbounds [13 x i32], [13 x i32]* %2, i64 0, i64 %26
  %28 = load i32, i32* %27, align 4
  %29 = add nsw i32 %24, %28
  store i32 %29, i32* %5, align 4
  %30 = load i32, i32* %3, align 4
  %31 = icmp sge i32 %30, 5
  br i1 %31, label %32, label %44

32:                                               ; preds = %23
  %33 = load i32, i32* %5, align 4
  %34 = sub nsw i32 %33, 13
  %35 = load i32, i32* %3, align 4
  %36 = add nsw i32 %34, %35
  %37 = srem i32 %36, 7
  %38 = icmp eq i32 %37, 0
  br i1 %38, label %39, label %43

39:                                               ; preds = %32
  %40 = load i32, i32* %4, align 4
  %41 = add nsw i32 %40, 1
  %42 = call i32 (i8*, ...) @printf(i8* getelementptr inbounds ([4 x i8], [4 x i8]* @.str.1, i64 0, i64 0), i32 %41)
  br label %43

43:                                               ; preds = %39, %32
  br label %61

44:                                               ; preds = %23
  %45 = load i32, i32* %3, align 4
  %46 = icmp slt i32 %45, 5
  br i1 %46, label %47, label %59

47:                                               ; preds = %44
  %48 = load i32, i32* %5, align 4
  %49 = sub nsw i32 %48, 6
  %50 = load i32, i32* %3, align 4
  %51 = add nsw i32 %49, %50
  %52 = srem i32 %51, 7
  %53 = icmp eq i32 %52, 0
  br i1 %53, label %54, label %58

54:                                               ; preds = %47
  %55 = load i32, i32* %4, align 4
  %56 = add nsw i32 %55, 1
  %57 = call i32 (i8*, ...) @printf(i8* getelementptr inbounds ([4 x i8], [4 x i8]* @.str.1, i64 0, i64 0), i32 %56)
  br label %58

58:                                               ; preds = %54, %47
  br label %60

59:                                               ; preds = %44
  br label %62

60:                                               ; preds = %58
  br label %61

61:                                               ; preds = %60, %43
  br label %62

62:                                               ; preds = %61, %59
  %63 = load i32, i32* %4, align 4
  %64 = add nsw i32 %63, 1
  store i32 %64, i32* %4, align 4
  br label %20

65:                                               ; preds = %20
  %66 = load i32, i32* %1, align 4
  ret i32 %66
}

declare dso_local i32 @__isoc99_scanf(i8*, ...) #1

declare dso_local i32 @printf(i8*, ...) #1


!llvm.module.flags = !{!0}
!llvm.ident = !{!1}

!0 = !{i32 1, !"wchar_size", i32 4}
!1 = !{!"clang version 10.0.0-4ubuntu1 "}
