; ModuleID = 'source-C-CXX/49/2643.c'
source_filename = "source-C-CXX/49/2643.c"
target datalayout = "e-m:e-p270:32:32-p271:32:32-p272:64:64-i64:64-f80:128-n8:16:32:64-S128"
target triple = "x86_64-pc-linux-gnu"

@.str = private unnamed_addr constant [3 x i8] c"%d\00", align 1
@.str.1 = private unnamed_addr constant [4 x i8] c"%d\0A\00", align 1

; Function Attrs: nofree nounwind sspstrong uwtable
define dso_local i32 @main() local_unnamed_addr #0 {
  %1 = alloca [13 x i32], align 16
  %2 = alloca i32, align 4
  %3 = bitcast [13 x i32]* %1 to i8*
  call void @llvm.lifetime.start.p0i8(i64 52, i8* nonnull %3) #3
  %4 = bitcast [13 x i32]* %1 to <4 x i32>*
  store <4 x i32> <i32 0, i32 31, i32 28, i32 31>, <4 x i32>* %4, align 16, !tbaa !5
  %5 = getelementptr inbounds [13 x i32], [13 x i32]* %1, i64 0, i64 4
  %6 = bitcast i32* %5 to <4 x i32>*
  store <4 x i32> <i32 30, i32 31, i32 30, i32 31>, <4 x i32>* %6, align 16, !tbaa !5
  %7 = getelementptr inbounds [13 x i32], [13 x i32]* %1, i64 0, i64 8
  %8 = bitcast i32* %7 to <4 x i32>*
  store <4 x i32> <i32 31, i32 30, i32 31, i32 30>, <4 x i32>* %8, align 16, !tbaa !5
  %9 = getelementptr inbounds [13 x i32], [13 x i32]* %1, i64 0, i64 12
  store i32 31, i32* %9, align 16, !tbaa !5
  %10 = bitcast i32* %2 to i8*
  call void @llvm.lifetime.start.p0i8(i64 4, i8* nonnull %10) #3
  %11 = call i32 (i8*, ...) @__isoc99_scanf(i8* getelementptr inbounds ([3 x i8], [3 x i8]* @.str, i64 0, i64 0), i32* nonnull %2)
  br label %12

12:                                               ; preds = %35, %0
  %13 = phi i32 [ 0, %0 ], [ %37, %35 ]
  %14 = phi i64 [ 0, %0 ], [ %33, %35 ]
  %15 = phi i32 [ 13, %0 ], [ %16, %35 ]
  %16 = add nsw i32 %13, %15
  %17 = load i32, i32* %2, align 4, !tbaa !5
  %18 = icmp sgt i32 %17, 4
  %19 = add i32 %17, %16
  br i1 %18, label %20, label %24

20:                                               ; preds = %12
  %21 = add i32 %19, -13
  %22 = srem i32 %21, 7
  %23 = icmp eq i32 %22, 0
  br i1 %23, label %28, label %32

24:                                               ; preds = %12
  %25 = add i32 %19, -6
  %26 = srem i32 %25, 7
  %27 = icmp eq i32 %26, 0
  br i1 %27, label %28, label %32

28:                                               ; preds = %24, %20
  %29 = trunc i64 %14 to i32
  %30 = add i32 %29, 1
  %31 = call i32 (i8*, ...) @printf(i8* nonnull dereferenceable(1) getelementptr inbounds ([4 x i8], [4 x i8]* @.str.1, i64 0, i64 0), i32 %30)
  br label %32

32:                                               ; preds = %28, %20, %24
  %33 = add nuw nsw i64 %14, 1
  %34 = icmp eq i64 %33, 12
  br i1 %34, label %38, label %35, !llvm.loop !9

35:                                               ; preds = %32
  %36 = getelementptr inbounds [13 x i32], [13 x i32]* %1, i64 0, i64 %33
  %37 = load i32, i32* %36, align 4, !tbaa !5
  br label %12

38:                                               ; preds = %32
  call void @llvm.lifetime.end.p0i8(i64 4, i8* nonnull %10) #3
  call void @llvm.lifetime.end.p0i8(i64 52, i8* nonnull %3) #3
  ret i32 0
}

; Function Attrs: argmemonly mustprogress nofree nosync nounwind willreturn
declare void @llvm.lifetime.start.p0i8(i64 immarg, i8* nocapture) #1

; Function Attrs: nofree nounwind
declare noundef i32 @__isoc99_scanf(i8* nocapture noundef readonly, ...) local_unnamed_addr #2

; Function Attrs: nofree nounwind
declare noundef i32 @printf(i8* nocapture noundef readonly, ...) local_unnamed_addr #2

; Function Attrs: argmemonly mustprogress nofree nosync nounwind willreturn
declare void @llvm.lifetime.end.p0i8(i64 immarg, i8* nocapture) #1


!llvm.module.flags = !{!0, !1, !2, !3}
!llvm.ident = !{!4}

!0 = !{i32 1, !"wchar_size", i32 4}
!1 = !{i32 7, !"PIC Level", i32 2}
!2 = !{i32 7, !"PIE Level", i32 2}
!3 = !{i32 7, !"uwtable", i32 1}
!4 = !{!"clang version 13.0.0"}
!5 = !{!6, !6, i64 0}
!6 = !{!"int", !7, i64 0}
!7 = !{!"omnipotent char", !8, i64 0}
!8 = !{!"Simple C/C++ TBAA"}
!9 = distinct !{!9, !10}
!10 = !{!"llvm.loop.mustprogress"}
